; Function Attrs: nofree norecurse nosync nounwind memory(read, inaccessiblemem: none) uwtable
define hidden noundef zeroext i1 @mi_check_owned(ptr noundef %0) local_unnamed_addr #3 {
  %2 = tail call align 8 ptr @llvm.threadlocal.address.p0(ptr align 8 @_mi_heap_default)
  %3 = load ptr, ptr %2, align 8, !tbaa !40
  %4 = icmp eq ptr %3, null
  br i1 %4, label %mi_heap_check_owned.exit, label %5

5:                                                ; preds = %1
  %6 = icmp ne ptr %3, @_mi_heap_empty
  %7 = ptrtoint ptr %0 to i64
  %8 = and i64 %7, 7
  %.not.i = icmp eq i64 %8, 0
  %or.cond.i = and i1 %.not.i, %6
  br i1 %or.cond.i, label %9, label %mi_heap_check_owned.exit

9:                                                ; preds = %5
  %10 = getelementptr inbounds nuw i8, ptr %3, i64 192
  %11 = load i64, ptr %10, align 8, !tbaa !27
  %12 = icmp eq i64 %11, 0
  br i1 %12, label %mi_heap_check_owned.exit, label %.preheader.i.i

.preheader.i.i:                                   ; preds = %9
  %13 = getelementptr inbounds nuw i8, ptr %3, i64 1264
  br label %14

14:                                               ; preds = %.critedge.i.i, %.preheader.i.i
  %.02229.i.i = phi i64 [ 0, %.preheader.i.i ], [ %28, %.critedge.i.i ]
  %15 = getelementptr inbounds nuw [75 x %struct.mi_page_queue_s], ptr %13, i64 0, i64 %.02229.i.i
  %.020.i11.i = load ptr, ptr %15, align 8, !tbaa !59
  %.not.i12.i = icmp eq ptr %.020.i11.i, null
  br i1 %.not.i12.i, label %.critedge.i.i, label %.lr.ph.i

16:                                               ; preds = %.lr.ph.i
  %17 = getelementptr inbounds nuw i8, ptr %.020.i13.i, i64 72
  %.020.i.i = load ptr, ptr %17, align 8, !tbaa !59
  %.not.i.i = icmp eq ptr %.020.i.i, null
  br i1 %.not.i.i, label %.critedge.i.i, label %.lr.ph.i, !llvm.loop !36

.lr.ph.i:                                         ; preds = %14, %16
  %.020.i13.i = phi ptr [ %.020.i.i, %16 ], [ %.020.i11.i, %14 ]
  %18 = getelementptr i8, ptr %.020.i13.i, i64 48
  %.val11.i.i = load ptr, ptr %18, align 8, !tbaa !60
  %19 = getelementptr inbounds nuw i8, ptr %.020.i13.i, i64 10
  %20 = load i16, ptr %19, align 2, !tbaa !61
  %21 = zext i16 %20 to i64
  %22 = getelementptr i8, ptr %.020.i13.i, i64 40
  %.val.i.i = load i64, ptr %22, align 8, !tbaa !62
  %23 = mul i64 %.val.i.i, %21
  %24 = getelementptr inbounds nuw i8, ptr %.val11.i.i, i64 %23
  %25 = icmp uge ptr %0, %.val11.i.i
  %26 = icmp ult ptr %0, %24
  %27 = select i1 %25, i1 %26, i1 false
  br i1 %27, label %mi_heap_check_owned.exit, label %16, !llvm.loop !36

.critedge.i.i:                                    ; preds = %16, %14
  %28 = add nuw nsw i64 %.02229.i.i, 1
  %exitcond.i.i = icmp eq i64 %28, 75
  br i1 %exitcond.i.i, label %mi_heap_check_owned.exit, label %14, !llvm.loop !38

mi_heap_check_owned.exit:                         ; preds = %.critedge.i.i, %.lr.ph.i, %1, %5, %9
  %.0.i = phi i1 [ false, %5 ], [ false, %1 ], [ false, %9 ], [ true, %.lr.ph.i ], [ false, %.critedge.i.i ]
  ret i1 %.0.i
}